target datalayout = "e-m:e-p270:32:32-p271:32:32-p272:64:64-i64:64-i128:128-f80:128-n8:16:32:64-S128"
target triple = "x86_64-pc-linux-gnu"

%struct.ArrayType = type { i32, i32, i32, i32 }

@.str.15 = private unnamed_addr constant [3 x i8] c"[]\00", align 1

; Function Attrs: inlinehint nounwind uwtable
define internal ptr @DatumGetPointer(i64 noundef %0) #2 {
  %2 = alloca i64, align 8
  store i64 %0, ptr %2, align 8
  %3 = load i64, ptr %2, align 8
  %4 = inttoptr i64 %3 to ptr
  ret ptr %4
}

; Function Attrs: nounwind uwtable
define internal void @array_to_json_internal(i64 noundef %0, ptr noundef %1, i1 noundef zeroext %2) #0 {
  %4 = alloca i64, align 8
  %5 = alloca ptr, align 8
  %6 = alloca i8, align 1
  %7 = alloca ptr, align 8
  %8 = alloca i32, align 4
  %9 = alloca ptr, align 8
  %10 = alloca i32, align 4
  %11 = alloca i32, align 4
  %12 = alloca i32, align 4
  %13 = alloca ptr, align 8
  %14 = alloca ptr, align 8
  %15 = alloca i16, align 2
  %16 = alloca i8, align 1
  %17 = alloca i8, align 1
  %18 = alloca i32, align 4
  %19 = alloca i32, align 4
  %20 = alloca i32, align 4
  store i64 %0, ptr %4, align 8
  store ptr %1, ptr %5, align 8
  %21 = zext i1 %2 to i8
  store i8 %21, ptr %6, align 1
  call void @llvm.lifetime.start.p0(i64 8, ptr %7) #14
  %22 = load i64, ptr %4, align 8
  %23 = call ptr @DatumGetPointer(i64 noundef %22)
  %24 = call ptr @pg_detoast_datum(ptr noundef %23)
  store ptr %24, ptr %7, align 8
  call void @llvm.lifetime.start.p0(i64 4, ptr %8) #14
  %25 = load ptr, ptr %7, align 8
  %26 = getelementptr inbounds nuw %struct.ArrayType, ptr %25, i32 0, i32 3
  %27 = load i32, ptr %26, align 4
  store i32 %27, ptr %8, align 4
  call void @llvm.lifetime.start.p0(i64 8, ptr %9) #14
  call void @llvm.lifetime.start.p0(i64 4, ptr %10) #14
  call void @llvm.lifetime.start.p0(i64 4, ptr %11) #14
  call void @llvm.lifetime.start.p0(i64 4, ptr %12) #14
  store i32 0, ptr %12, align 4
  call void @llvm.lifetime.start.p0(i64 8, ptr %13) #14
  call void @llvm.lifetime.start.p0(i64 8, ptr %14) #14
  call void @llvm.lifetime.start.p0(i64 2, ptr %15) #14
  call void @llvm.lifetime.start.p0(i64 1, ptr %16) #14
  call void @llvm.lifetime.start.p0(i64 1, ptr %17) #14
  call void @llvm.lifetime.start.p0(i64 4, ptr %18) #14
  call void @llvm.lifetime.start.p0(i64 4, ptr %19) #14
  %28 = load ptr, ptr %7, align 8
  %29 = getelementptr inbounds nuw %struct.ArrayType, ptr %28, i32 0, i32 1
  %30 = load i32, ptr %29, align 4
  store i32 %30, ptr %10, align 4
  %31 = load ptr, ptr %7, align 8
  %32 = getelementptr inbounds nuw i8, ptr %31, i64 16
  store ptr %32, ptr %9, align 8
  %33 = load i32, ptr %10, align 4
  %34 = load ptr, ptr %9, align 8
  %35 = call i32 @ArrayGetNItems(i32 noundef %33, ptr noundef %34)
  store i32 %35, ptr %11, align 4
  %36 = load i32, ptr %11, align 4
  %37 = icmp sle i32 %36, 0
  br i1 %37, label %38, label %40

38:                                               ; preds = %3
  %39 = load ptr, ptr %5, align 8
  call void @appendStringInfoString(ptr noundef %39, ptr noundef @.str.15)
  store i32 1, ptr %20, align 4
  br label %61

40:                                               ; preds = %3
  %41 = load i32, ptr %8, align 4
  call void @get_typlenbyvalalign(i32 noundef %41, ptr noundef %15, ptr noundef %16, ptr noundef %17)
  %42 = load i32, ptr %8, align 4
  call void @json_categorize_type(i32 noundef %42, i1 noundef zeroext false, ptr noundef %18, ptr noundef %19)
  %43 = load ptr, ptr %7, align 8
  %44 = load i32, ptr %8, align 4
  %45 = load i16, ptr %15, align 2
  %46 = sext i16 %45 to i32
  %47 = load i8, ptr %16, align 1, !range !4, !noundef !5
  %48 = trunc i8 %47 to i1
  %49 = load i8, ptr %17, align 1
  call void @deconstruct_array(ptr noundef %43, i32 noundef %44, i32 noundef %46, i1 noundef zeroext %48, i8 noundef signext %49, ptr noundef %13, ptr noundef %14, ptr noundef %11)
  %50 = load ptr, ptr %5, align 8
  %51 = load i32, ptr %10, align 4
  %52 = load ptr, ptr %9, align 8
  %53 = load ptr, ptr %13, align 8
  %54 = load ptr, ptr %14, align 8
  %55 = load i32, ptr %18, align 4
  %56 = load i32, ptr %19, align 4
  %57 = load i8, ptr %6, align 1, !range !4, !noundef !5
  %58 = trunc i8 %57 to i1
  call void @array_dim_to_json(ptr noundef %50, i32 noundef 0, i32 noundef %51, ptr noundef %52, ptr noundef %53, ptr noundef %54, ptr noundef %12, i32 noundef %55, i32 noundef %56, i1 noundef zeroext %58)
  %59 = load ptr, ptr %13, align 8
  call void @pfree(ptr noundef %59)
  %60 = load ptr, ptr %14, align 8
  call void @pfree(ptr noundef %60)
  store i32 0, ptr %20, align 4
  br label %61

61:                                               ; preds = %40, %38
  call void @llvm.lifetime.end.p0(i64 4, ptr %19) #14
  call void @llvm.lifetime.end.p0(i64 4, ptr %18) #14
  call void @llvm.lifetime.end.p0(i64 1, ptr %17) #14
  call void @llvm.lifetime.end.p0(i64 1, ptr %16) #14
  call void @llvm.lifetime.end.p0(i64 2, ptr %15) #14
  call void @llvm.lifetime.end.p0(i64 8, ptr %14) #14
  call void @llvm.lifetime.end.p0(i64 8, ptr %13) #14
  call void @llvm.lifetime.end.p0(i64 4, ptr %12) #14
  call void @llvm.lifetime.end.p0(i64 4, ptr %11) #14
  call void @llvm.lifetime.end.p0(i64 4, ptr %10) #14
  call void @llvm.lifetime.end.p0(i64 8, ptr %9) #14
  call void @llvm.lifetime.end.p0(i64 4, ptr %8) #14
  call void @llvm.lifetime.end.p0(i64 8, ptr %7) #14
  %62 = load i32, ptr %20, align 4
  switch i32 %62, label %64 [
    i32 0, label %63
    i32 1, label %63
  ]

63:                                               ; preds = %61, %61
  ret void

64:                                               ; preds = %61
  unreachable
}