; Function Attrs: nounwind uwtable
define internal fastcc void @array_to_json_internal(i64 noundef %0, ptr noundef %1, i1 noundef zeroext %2) unnamed_addr #0 {
  %4 = alloca i32, align 4
  %5 = alloca i32, align 4
  %6 = alloca ptr, align 8
  %7 = alloca ptr, align 8
  %8 = alloca i16, align 2
  %9 = alloca i8, align 1
  %10 = alloca i8, align 1
  %11 = alloca i32, align 4
  %12 = alloca i32, align 4
  %13 = inttoptr i64 %0 to ptr
  %14 = tail call ptr @pg_detoast_datum(ptr noundef %13) #10
  %15 = getelementptr inbounds nuw i8, ptr %14, i64 12
  %16 = load i32, ptr %15, align 4
  call void @llvm.lifetime.start.p0(i64 4, ptr nonnull %4) #10
  call void @llvm.lifetime.start.p0(i64 4, ptr nonnull %5) #10
  store i32 0, ptr %5, align 4
  call void @llvm.lifetime.start.p0(i64 8, ptr nonnull %6) #10
  call void @llvm.lifetime.start.p0(i64 8, ptr nonnull %7) #10
  call void @llvm.lifetime.start.p0(i64 2, ptr nonnull %8) #10
  call void @llvm.lifetime.start.p0(i64 1, ptr nonnull %9) #10
  call void @llvm.lifetime.start.p0(i64 1, ptr nonnull %10) #10
  call void @llvm.lifetime.start.p0(i64 4, ptr nonnull %11) #10
  call void @llvm.lifetime.start.p0(i64 4, ptr nonnull %12) #10
  %17 = getelementptr inbounds nuw i8, ptr %14, i64 4
  %18 = load i32, ptr %17, align 4
  %19 = getelementptr inbounds nuw i8, ptr %14, i64 16
  %20 = tail call i32 @ArrayGetNItems(i32 noundef %18, ptr noundef nonnull %19) #10
  store i32 %20, ptr %4, align 4
  %21 = icmp slt i32 %20, 1
  br i1 %21, label %22, label %23

22:                                               ; preds = %3
  tail call void @appendStringInfoString(ptr noundef %1, ptr noundef nonnull @.str.15) #10
  br label %35

23:                                               ; preds = %3
  call void @get_typlenbyvalalign(i32 noundef %16, ptr noundef nonnull %8, ptr noundef nonnull %9, ptr noundef nonnull %10) #10
  call void @json_categorize_type(i32 noundef %16, i1 noundef zeroext false, ptr noundef nonnull %11, ptr noundef nonnull %12) #10
  %24 = load i16, ptr %8, align 2
  %25 = sext i16 %24 to i32
  %26 = load i8, ptr %9, align 1, !range !4, !noundef !5
  %27 = trunc nuw i8 %26 to i1
  %28 = load i8, ptr %10, align 1
  call void @deconstruct_array(ptr noundef nonnull %14, i32 noundef %16, i32 noundef %25, i1 noundef zeroext %27, i8 noundef signext %28, ptr noundef nonnull %6, ptr noundef nonnull %7, ptr noundef nonnull %4) #10
  %29 = load ptr, ptr %6, align 8
  %30 = load ptr, ptr %7, align 8
  %31 = load i32, ptr %11, align 4
  %32 = load i32, ptr %12, align 4
  call fastcc void @array_dim_to_json(ptr noundef %1, i32 noundef 0, i32 noundef %18, ptr noundef nonnull %19, ptr noundef %29, ptr noundef %30, ptr noundef %5, i32 noundef %31, i32 noundef %32, i1 noundef zeroext %2)
  %33 = load ptr, ptr %6, align 8
  call void @pfree(ptr noundef %33) #10
  %34 = load ptr, ptr %7, align 8
  call void @pfree(ptr noundef %34) #10
  br label %35

35:                                               ; preds = %23, %22
  call void @llvm.lifetime.end.p0(i64 4, ptr nonnull %12) #10
  call void @llvm.lifetime.end.p0(i64 4, ptr nonnull %11) #10
  call void @llvm.lifetime.end.p0(i64 1, ptr nonnull %10) #10
  call void @llvm.lifetime.end.p0(i64 1, ptr nonnull %9) #10
  call void @llvm.lifetime.end.p0(i64 2, ptr nonnull %8) #10
  call void @llvm.lifetime.end.p0(i64 8, ptr nonnull %7) #10
  call void @llvm.lifetime.end.p0(i64 8, ptr nonnull %6) #10
  call void @llvm.lifetime.end.p0(i64 4, ptr nonnull %5) #10
  call void @llvm.lifetime.end.p0(i64 4, ptr nonnull %4) #10
  ret void
}